target datalayout = "e-m:e-p270:32:32-p271:32:32-p272:64:64-i64:64-i128:128-f80:128-n8:16:32:64-S128"
target triple = "x86_64-unknown-linux-gnu"

%"class.std::variant" = type { %"struct.std::__detail::__variant::_Variant_base.base", [7 x i8] }
%"struct.std::__detail::__variant::_Variant_base.base" = type { %"struct.std::__detail::__variant::_Move_assign_base.base" }
%"struct.std::__detail::__variant::_Move_assign_base.base" = type { %"struct.std::__detail::__variant::_Copy_assign_base.base" }
%"struct.std::__detail::__variant::_Copy_assign_base.base" = type { %"struct.std::__detail::__variant::_Move_ctor_base.base" }
%"struct.std::__detail::__variant::_Move_ctor_base.base" = type { %"struct.std::__detail::__variant::_Copy_ctor_base.base" }
%"struct.std::__detail::__variant::_Copy_ctor_base.base" = type { %"struct.std::__detail::__variant::_Variant_storage.base" }
%"struct.std::__detail::__variant::_Variant_storage.base" = type <{ %"union.std::__detail::__variant::_Variadic_union", i8 }>
%"union.std::__detail::__variant::_Variadic_union" = type { %"union.std::__detail::__variant::_Variadic_union.202" }
%"union.std::__detail::__variant::_Variadic_union.202" = type { %"union.std::__detail::__variant::_Variadic_union.204" }
%"union.std::__detail::__variant::_Variadic_union.204" = type { %"struct.std::__detail::__variant::_Uninitialized.205" }
%"struct.std::__detail::__variant::_Uninitialized.205" = type { ptr }
%"class.hermes::ESTree::Node" = type { %"class.llvh::ilist_node", i32, i32, %"class.llvh::SMRange", %"class.llvh::SMLoc" }
%"class.llvh::ilist_node" = type { %"class.llvh::ilist_node_impl" }
%"class.llvh::ilist_node_impl" = type { %"class.llvh::ilist_node_base" }
%"class.llvh::ilist_node_base" = type { ptr, ptr }
%"class.llvh::SMRange" = type { %"class.llvh::SMLoc", %"class.llvh::SMLoc" }
%"class.llvh::SMLoc" = type { ptr }
%"class.llvh::simple_ilist" = type { %"class.llvh::ilist_sentinel" }
%"class.llvh::ilist_sentinel" = type { %"class.llvh::ilist_node_impl" }
%"class.hermes::ESTree::ObjectPatternNode" = type { %"class.hermes::ESTree::PatternNode", %"class.llvh::simple_ilist", ptr }
%"class.hermes::ESTree::PatternNode" = type { %"class.hermes::ESTree::Node" }
%"class.llvh::ilist_iterator" = type { ptr }

; Function Attrs: mustprogress nounwind uwtable
define linkonce_odr hidden noundef ptr @_ZNK4llvh15ilist_node_baseILb0EE7getNextEv(ptr noundef nonnull align 8 dereferenceable(16) %this) #0 comdat align 2 {
entry:
  %this.addr = alloca ptr, align 8
  store ptr %this, ptr %this.addr, align 8
  %this1 = load ptr, ptr %this.addr, align 8
  %Next = getelementptr inbounds %"class.llvh::ilist_node_base", ptr %this1, i32 0, i32 1
  %0 = load ptr, ptr %Next, align 8
  ret ptr %0
}

; Function Attrs: mustprogress nounwind uwtable
define linkonce_odr hidden noundef ptr @_ZN4llvh12ilist_detail10NodeAccess11getValuePtrINS0_12node_optionsIN6hermes6ESTree4NodeELb0ELb0EvEEEENT_7pointerEPNS_15ilist_node_implIS8_EE(ptr noundef %N) #0 comdat align 2 {
entry:
  %N.addr = alloca ptr, align 8
  store ptr %N, ptr %N.addr, align 8
  %0 = load ptr, ptr %N.addr, align 8
  ret ptr %0
}

; Function Attrs: mustprogress nounwind uwtable
define linkonce_odr hidden noundef ptr @_ZN4llvh15ilist_node_implINS_12ilist_detail12node_optionsIN6hermes6ESTree4NodeELb0ELb0EvEEE7getNextEv(ptr noundef nonnull align 8 dereferenceable(16) %this) #0 comdat align 2 {
entry:
  %this.addr = alloca ptr, align 8
  store ptr %this, ptr %this.addr, align 8
  %this1 = load ptr, ptr %this.addr, align 8
  %call = call noundef ptr @_ZNK4llvh15ilist_node_baseILb0EE7getNextEv(ptr noundef nonnull align 8 dereferenceable(16) %this1)
  ret ptr %call
}

; Function Attrs: mustprogress nounwind uwtable
define linkonce_odr hidden noundef ptr @_ZN4llvh12ilist_detail18SpecificNodeAccessINS0_12node_optionsIN6hermes6ESTree4NodeELb0ELb0EvEEE11getValuePtrEPNS_15ilist_node_implIS6_EE(ptr noundef %N) #0 comdat align 2 {
entry:
  %N.addr = alloca ptr, align 8
  store ptr %N, ptr %N.addr, align 8
  %0 = load ptr, ptr %N.addr, align 8
  %call = call noundef ptr @_ZN4llvh12ilist_detail10NodeAccess11getValuePtrINS0_12node_optionsIN6hermes6ESTree4NodeELb0ELb0EvEEEENT_7pointerEPNS_15ilist_node_implIS8_EE(ptr noundef %0)
  ret ptr %call
}

; Function Attrs: mustprogress nounwind uwtable
define linkonce_odr hidden void @_ZN4llvh14ilist_iteratorINS_12ilist_detail12node_optionsIN6hermes6ESTree4NodeELb0ELb0EvEELb0ELb0EEC2ERNS_15ilist_node_implIS6_EE(ptr noundef nonnull align 8 dereferenceable(8) %this, ptr noundef nonnull align 8 dereferenceable(16) %N) unnamed_addr #0 comdat align 2 {
entry:
  %this.addr = alloca ptr, align 8
  %N.addr = alloca ptr, align 8
  store ptr %this, ptr %this.addr, align 8
  store ptr %N, ptr %N.addr, align 8
  %this1 = load ptr, ptr %this.addr, align 8
  %NodePtr = getelementptr inbounds %"class.llvh::ilist_iterator", ptr %this1, i32 0, i32 0
  %0 = load ptr, ptr %N.addr, align 8
  store ptr %0, ptr %NodePtr, align 8
  ret void
}

; Function Attrs: mustprogress nounwind uwtable
define linkonce_odr hidden noundef nonnull align 8 dereferenceable(8) ptr @_ZN4llvh14ilist_iteratorINS_12ilist_detail12node_optionsIN6hermes6ESTree4NodeELb0ELb0EvEELb0ELb0EEppEv(ptr noundef nonnull align 8 dereferenceable(8) %this) #0 comdat align 2 {
entry:
  %this.addr = alloca ptr, align 8
  store ptr %this, ptr %this.addr, align 8
  %this1 = load ptr, ptr %this.addr, align 8
  %NodePtr = getelementptr inbounds %"class.llvh::ilist_iterator", ptr %this1, i32 0, i32 0
  %0 = load ptr, ptr %NodePtr, align 8
  %call = call noundef ptr @_ZN4llvh15ilist_node_implINS_12ilist_detail12node_optionsIN6hermes6ESTree4NodeELb0ELb0EvEEE7getNextEv(ptr noundef nonnull align 8 dereferenceable(16) %0)
  %NodePtr2 = getelementptr inbounds %"class.llvh::ilist_iterator", ptr %this1, i32 0, i32 0
  store ptr %call, ptr %NodePtr2, align 8
  ret ptr %this1
}

; Function Attrs: mustprogress nounwind uwtable
define linkonce_odr hidden noundef nonnull align 8 dereferenceable(48) ptr @_ZNK4llvh14ilist_iteratorINS_12ilist_detail12node_optionsIN6hermes6ESTree4NodeELb0ELb0EvEELb0ELb0EEdeEv(ptr noundef nonnull align 8 dereferenceable(8) %this) #0 comdat align 2 {
entry:
  %this.addr = alloca ptr, align 8
  store ptr %this, ptr %this.addr, align 8
  %this1 = load ptr, ptr %this.addr, align 8
  %NodePtr = getelementptr inbounds %"class.llvh::ilist_iterator", ptr %this1, i32 0, i32 0
  %0 = load ptr, ptr %NodePtr, align 8
  %call = call noundef ptr @_ZN4llvh12ilist_detail18SpecificNodeAccessINS0_12node_optionsIN6hermes6ESTree4NodeELb0ELb0EvEEE11getValuePtrEPNS_15ilist_node_implIS6_EE(ptr noundef %0)
  ret ptr %call
}

; Function Attrs: mustprogress nounwind uwtable
define linkonce_odr hidden noundef zeroext i1 @_ZN4llvhneERKNS_14ilist_iteratorINS_12ilist_detail12node_optionsIN6hermes6ESTree4NodeELb0ELb0EvEELb0ELb0EEES9_(ptr noundef nonnull align 8 dereferenceable(8) %LHS, ptr noundef nonnull align 8 dereferenceable(8) %RHS) #0 comdat {
entry:
  %LHS.addr = alloca ptr, align 8
  %RHS.addr = alloca ptr, align 8
  store ptr %LHS, ptr %LHS.addr, align 8
  store ptr %RHS, ptr %RHS.addr, align 8
  %0 = load ptr, ptr %LHS.addr, align 8
  %NodePtr = getelementptr inbounds %"class.llvh::ilist_iterator", ptr %0, i32 0, i32 0
  %1 = load ptr, ptr %NodePtr, align 8
  %2 = load ptr, ptr %RHS.addr, align 8
  %NodePtr1 = getelementptr inbounds %"class.llvh::ilist_iterator", ptr %2, i32 0, i32 0
  %3 = load ptr, ptr %NodePtr1, align 8
  %cmp = icmp ne ptr %1, %3
  ret i1 %cmp
}

; Function Attrs: mustprogress nounwind uwtable
define linkonce_odr hidden ptr @_ZN4llvh12simple_ilistIN6hermes6ESTree4NodeEJEE3endEv(ptr noundef nonnull align 8 dereferenceable(16) %this) #0 comdat align 2 {
entry:
  %retval = alloca %"class.llvh::ilist_iterator", align 8
  %this.addr = alloca ptr, align 8
  store ptr %this, ptr %this.addr, align 8
  %this1 = load ptr, ptr %this.addr, align 8
  %Sentinel = getelementptr inbounds %"class.llvh::simple_ilist", ptr %this1, i32 0, i32 0
  call void @_ZN4llvh14ilist_iteratorINS_12ilist_detail12node_optionsIN6hermes6ESTree4NodeELb0ELb0EvEELb0ELb0EEC2ERNS_15ilist_node_implIS6_EE(ptr noundef nonnull align 8 dereferenceable(8) %retval, ptr noundef nonnull align 8 dereferenceable(16) %Sentinel)
  %coerce.dive = getelementptr inbounds %"class.llvh::ilist_iterator", ptr %retval, i32 0, i32 0
  %0 = load ptr, ptr %coerce.dive, align 8
  ret ptr %0
}

; Function Attrs: mustprogress nounwind uwtable
define linkonce_odr hidden ptr @_ZN4llvh12simple_ilistIN6hermes6ESTree4NodeEJEE5beginEv(ptr noundef nonnull align 8 dereferenceable(16) %this) #0 comdat align 2 {
entry:
  %retval = alloca %"class.llvh::ilist_iterator", align 8
  %this.addr = alloca ptr, align 8
  %ref.tmp = alloca %"class.llvh::ilist_iterator", align 8
  store ptr %this, ptr %this.addr, align 8
  %this1 = load ptr, ptr %this.addr, align 8
  %Sentinel = getelementptr inbounds %"class.llvh::simple_ilist", ptr %this1, i32 0, i32 0
  call void @_ZN4llvh14ilist_iteratorINS_12ilist_detail12node_optionsIN6hermes6ESTree4NodeELb0ELb0EvEELb0ELb0EEC2ERNS_15ilist_node_implIS6_EE(ptr noundef nonnull align 8 dereferenceable(8) %ref.tmp, ptr noundef nonnull align 8 dereferenceable(16) %Sentinel)
  %call = call noundef nonnull align 8 dereferenceable(8) ptr @_ZN4llvh14ilist_iteratorINS_12ilist_detail12node_optionsIN6hermes6ESTree4NodeELb0ELb0EvEELb0ELb0EEppEv(ptr noundef nonnull align 8 dereferenceable(8) %ref.tmp)
  call void @llvm.memcpy.p0.p0.i64(ptr align 8 %retval, ptr align 8 %call, i64 8, i1 false)
  %coerce.dive = getelementptr inbounds %"class.llvh::ilist_iterator", ptr %retval, i32 0, i32 0
  %0 = load ptr, ptr %coerce.dive, align 8
  ret ptr %0
}

; Function Attrs: mustprogress nounwind uwtable
define internal void @_ZN6hermes6ESTree24RecursiveVisitorDispatchINS_12_GLOBAL__N_119DependencyExtractorELb1EE5visitERS3_RN4llvh12simple_ilistINS0_4NodeEJEEEPS8_(ptr noundef nonnull align 8 dereferenceable(145) %v, ptr noundef nonnull align 8 dereferenceable(16) %list, ptr noundef %parent) #0 align 2 {
entry:
  %v.addr = alloca ptr, align 8
  %list.addr = alloca ptr, align 8
  %parent.addr = alloca ptr, align 8
  %__range4 = alloca ptr, align 8
  %__begin4 = alloca %"class.llvh::ilist_iterator", align 8
  %__end4 = alloca %"class.llvh::ilist_iterator", align 8
  %node = alloca ptr, align 8
  %coerce = alloca %"class.std::variant", align 8
  store ptr %v, ptr %v.addr, align 8
  store ptr %list, ptr %list.addr, align 8
  store ptr %parent, ptr %parent.addr, align 8
  %0 = load ptr, ptr %list.addr, align 8
  store ptr %0, ptr %__range4, align 8
  %1 = load ptr, ptr %__range4, align 8
  %call = call ptr @_ZN4llvh12simple_ilistIN6hermes6ESTree4NodeEJEE5beginEv(ptr noundef nonnull align 8 dereferenceable(16) %1)
  %coerce.dive = getelementptr inbounds %"class.llvh::ilist_iterator", ptr %__begin4, i32 0, i32 0
  store ptr %call, ptr %coerce.dive, align 8
  %2 = load ptr, ptr %__range4, align 8
  %call1 = call ptr @_ZN4llvh12simple_ilistIN6hermes6ESTree4NodeEJEE3endEv(ptr noundef nonnull align 8 dereferenceable(16) %2)
  %coerce.dive2 = getelementptr inbounds %"class.llvh::ilist_iterator", ptr %__end4, i32 0, i32 0
  store ptr %call1, ptr %coerce.dive2, align 8
  br label %for.cond

for.cond:                                         ; preds = %for.inc, %entry
  %call3 = call noundef zeroext i1 @_ZN4llvhneERKNS_14ilist_iteratorINS_12ilist_detail12node_optionsIN6hermes6ESTree4NodeELb0ELb0EvEELb0ELb0EEES9_(ptr noundef nonnull align 8 dereferenceable(8) %__begin4, ptr noundef nonnull align 8 dereferenceable(8) %__end4)
  br i1 %call3, label %for.body, label %for.end

for.body:                                         ; preds = %for.cond
  %call4 = call noundef nonnull align 8 dereferenceable(48) ptr @_ZNK4llvh14ilist_iteratorINS_12ilist_detail12node_optionsIN6hermes6ESTree4NodeELb0ELb0EvEELb0ELb0EEdeEv(ptr noundef nonnull align 8 dereferenceable(8) %__begin4)
  store ptr %call4, ptr %node, align 8
  %3 = load ptr, ptr %v.addr, align 8
  %4 = load ptr, ptr %node, align 8
  %5 = load ptr, ptr %parent.addr, align 8
  %call5 = call { ptr, i8 } @_ZN6hermes6ESTree24RecursiveVisitorDispatchINS_12_GLOBAL__N_119DependencyExtractorELb1EE5visitERS3_PNS0_4NodeES7_(ptr noundef nonnull align 8 dereferenceable(145) %3, ptr noundef %4, ptr noundef %5)
  %6 = getelementptr inbounds { ptr, i8 }, ptr %coerce, i32 0, i32 0
  %7 = extractvalue { ptr, i8 } %call5, 0
  store ptr %7, ptr %6, align 8
  %8 = getelementptr inbounds { ptr, i8 }, ptr %coerce, i32 0, i32 1
  %9 = extractvalue { ptr, i8 } %call5, 1
  store i8 %9, ptr %8, align 8
  br label %for.inc

for.inc:                                          ; preds = %for.body
  %call6 = call noundef nonnull align 8 dereferenceable(8) ptr @_ZN4llvh14ilist_iteratorINS_12ilist_detail12node_optionsIN6hermes6ESTree4NodeELb0ELb0EvEELb0ELb0EEppEv(ptr noundef nonnull align 8 dereferenceable(8) %__begin4)
  br label %for.cond

for.end:                                          ; preds = %for.cond
  ret void
}

; Function Attrs: mustprogress nounwind uwtable
define internal void @_ZN6hermes6ESTree24RecursiveVisitorDispatchINS_12_GLOBAL__N_119DependencyExtractorELb1EE13visitChildrenERS3_PNS0_17ObjectPatternNodeE(ptr noundef nonnull align 8 dereferenceable(145) %v, ptr noundef %node) #0 align 2 {
entry:
  %v.addr = alloca ptr, align 8
  %node.addr = alloca ptr, align 8
  %coerce = alloca %"class.std::variant", align 8
  store ptr %v, ptr %v.addr, align 8
  store ptr %node, ptr %node.addr, align 8
  %0 = load ptr, ptr %v.addr, align 8
  %1 = load ptr, ptr %node.addr, align 8
  %_properties = getelementptr inbounds %"class.hermes::ESTree::ObjectPatternNode", ptr %1, i32 0, i32 1
  %2 = load ptr, ptr %node.addr, align 8
  call void @_ZN6hermes6ESTree24RecursiveVisitorDispatchINS_12_GLOBAL__N_119DependencyExtractorELb1EE5visitERS3_RN4llvh12simple_ilistINS0_4NodeEJEEEPS8_(ptr noundef nonnull align 8 dereferenceable(145) %0, ptr noundef nonnull align 8 dereferenceable(16) %_properties, ptr noundef %2)
  %3 = load ptr, ptr %v.addr, align 8
  %4 = load ptr, ptr %node.addr, align 8
  %_typeAnnotation = getelementptr inbounds %"class.hermes::ESTree::ObjectPatternNode", ptr %4, i32 0, i32 2
  %5 = load ptr, ptr %_typeAnnotation, align 8
  %6 = load ptr, ptr %node.addr, align 8
  %call = call { ptr, i8 } @_ZN6hermes6ESTree24RecursiveVisitorDispatchINS_12_GLOBAL__N_119DependencyExtractorELb1EE5visitERS3_PNS0_4NodeES7_(ptr noundef nonnull align 8 dereferenceable(145) %3, ptr noundef %5, ptr noundef %6)
  %7 = getelementptr inbounds { ptr, i8 }, ptr %coerce, i32 0, i32 0
  %8 = extractvalue { ptr, i8 } %call, 0
  store ptr %8, ptr %7, align 8
  %9 = getelementptr inbounds { ptr, i8 }, ptr %coerce, i32 0, i32 1
  %10 = extractvalue { ptr, i8 } %call, 1
  store i8 %10, ptr %9, align 8
  ret void
}